#include <math.h>
#include <stdio.h>
#include <stdlib.h>
#include <string.h>


int main()
{
	int n, k, i, j;
	double a[1000], ave=0, sum=0, s=0;
	scanf("%d", &n);
	for(i=0;i<n;i++)
	{
		scanf("%d", &k);
		for(j=0;j<k;j++)
		{
			scanf("%lf", &a[j]);
		}

		for(j=0;j<k;j++)
		{
			ave += a[j];
		}
		ave = ave/k;
		for(j=0;j<k;j++)
		{
			sum += (a[j] - ave) * (a[j] - ave);
		}
		s = sqrt(sum/k);
		printf("%.5lf\n", s);

		ave = 0;
		sum = 0;
		s = 0;
	}
	return 0;
}
